target datalayout = "e-m:e-p270:32:32-p271:32:32-p272:64:64-i64:64-i128:128-f80:128-n8:16:32:64-S128"
target triple = "x86_64-pc-linux-gnu"

%struct.H5FD_multi_t = type { %struct.H5FD_t, %struct.H5FD_multi_fapl_t, [7 x i64], [7 x ptr], [7 x i64], i32, ptr }
%struct.H5FD_t = type { i64, ptr, i64, i32, i64, i64, i64, i64, i64, i8 }
%struct.H5FD_multi_fapl_t = type { [7 x i32], [7 x i64], [7 x ptr], [7 x i64], i8 }

@.str.1 = private unnamed_addr constant [103 x i8] c"generated/home/dtcxzyw/WorkSpace/Projects/compilers/llvm-opt-benchmark/bench/hdf5/hdf5/src/H5FDmulti.c\00", align 1
@H5_libinit_g = external global i8, align 1
@H5_libterm_g = external global i8, align 1
@H5E_ERR_CLS_g = external global i64, align 8
@H5E_INTERNAL_g = external global i64, align 8
@H5E_BADVALUE_g = external global i64, align 8
@__func__.H5FD_multi_alloc = private unnamed_addr constant [17 x i8] c"H5FD_multi_alloc\00", align 1
@.str.41 = private unnamed_addr constant [24 x i8] c"member file can't alloc\00", align 1

; Function Attrs: nounwind uwtable
define internal i64 @H5FD_multi_alloc(ptr noundef %0, i32 noundef %1, i64 noundef %2, i64 noundef %3) #0 {
  %5 = alloca i64, align 8
  %6 = alloca ptr, align 8
  %7 = alloca i32, align 4
  %8 = alloca i64, align 8
  %9 = alloca i64, align 8
  %10 = alloca ptr, align 8
  %11 = alloca i32, align 4
  %12 = alloca i64, align 8
  %13 = alloca i32, align 4
  %14 = alloca i32, align 4
  store ptr %0, ptr %6, align 8, !tbaa !3
  store i32 %1, ptr %7, align 4, !tbaa !10
  store i64 %2, ptr %8, align 8, !tbaa !12
  store i64 %3, ptr %9, align 8, !tbaa !12
  call void @llvm.lifetime.start.p0(i64 8, ptr %10) #9
  %15 = load ptr, ptr %6, align 8, !tbaa !3
  store ptr %15, ptr %10, align 8, !tbaa !8
  call void @llvm.lifetime.start.p0(i64 4, ptr %11) #9
  call void @llvm.lifetime.start.p0(i64 8, ptr %12) #9
  %16 = load ptr, ptr %10, align 8, !tbaa !8
  %17 = getelementptr inbounds nuw %struct.H5FD_multi_t, ptr %16, i32 0, i32 1
  %18 = getelementptr inbounds nuw %struct.H5FD_multi_fapl_t, ptr %17, i32 0, i32 0
  %19 = load i32, ptr %7, align 4, !tbaa !10
  %20 = sext i32 %19 to i64
  %21 = getelementptr inbounds [7 x i32], ptr %18, i64 0, i64 %20
  %22 = load i32, ptr %21, align 4, !tbaa !10
  store i32 %22, ptr %11, align 4, !tbaa !10
  %23 = load i32, ptr %11, align 4, !tbaa !10
  %24 = icmp eq i32 0, %23
  br i1 %24, label %25, label %27

25:                                               ; preds = %4
  %26 = load i32, ptr %7, align 4, !tbaa !10
  store i32 %26, ptr %11, align 4, !tbaa !10
  br label %27

27:                                               ; preds = %25, %4
  %28 = load ptr, ptr %10, align 8, !tbaa !8
  %29 = getelementptr inbounds nuw %struct.H5FD_multi_t, ptr %28, i32 0, i32 0
  %30 = getelementptr inbounds nuw %struct.H5FD_t, ptr %29, i32 0, i32 9
  %31 = load i8, ptr %30, align 8, !tbaa !59, !range !24, !noundef !25
  %32 = trunc i8 %31 to i1
  br i1 %32, label %33, label %64

33:                                               ; preds = %27
  call void @llvm.lifetime.start.p0(i64 4, ptr %13) #9
  store i32 0, ptr %13, align 4, !tbaa !10
  br label %34

34:                                               ; preds = %60, %33
  %35 = load i32, ptr %13, align 4, !tbaa !10
  %36 = icmp slt i32 %35, 7
  br i1 %36, label %37, label %63

37:                                               ; preds = %34
  %38 = load ptr, ptr %10, align 8, !tbaa !8
  %39 = getelementptr inbounds nuw %struct.H5FD_multi_t, ptr %38, i32 0, i32 3
  %40 = load i32, ptr %13, align 4, !tbaa !10
  %41 = sext i32 %40 to i64
  %42 = getelementptr inbounds [7 x ptr], ptr %39, i64 0, i64 %41
  %43 = load ptr, ptr %42, align 8, !tbaa !3
  %44 = icmp ne ptr %43, null
  br i1 %44, label %45, label %59

45:                                               ; preds = %37
  %46 = load ptr, ptr %10, align 8, !tbaa !8
  %47 = getelementptr inbounds nuw %struct.H5FD_multi_t, ptr %46, i32 0, i32 0
  %48 = getelementptr inbounds nuw %struct.H5FD_t, ptr %47, i32 0, i32 9
  %49 = load i8, ptr %48, align 8, !tbaa !59, !range !24, !noundef !25
  %50 = trunc i8 %49 to i1
  %51 = load ptr, ptr %10, align 8, !tbaa !8
  %52 = getelementptr inbounds nuw %struct.H5FD_multi_t, ptr %51, i32 0, i32 3
  %53 = load i32, ptr %13, align 4, !tbaa !10
  %54 = sext i32 %53 to i64
  %55 = getelementptr inbounds [7 x ptr], ptr %52, i64 0, i64 %54
  %56 = load ptr, ptr %55, align 8, !tbaa !3
  %57 = getelementptr inbounds nuw %struct.H5FD_t, ptr %56, i32 0, i32 9
  %58 = zext i1 %50 to i8
  store i8 %58, ptr %57, align 8, !tbaa !60
  br label %59

59:                                               ; preds = %45, %37
  br label %60

60:                                               ; preds = %59
  %61 = load i32, ptr %13, align 4, !tbaa !10
  %62 = add nsw i32 %61, 1
  store i32 %62, ptr %13, align 4, !tbaa !10
  br label %34, !llvm.loop !61

63:                                               ; preds = %34
  call void @llvm.lifetime.end.p0(i64 4, ptr %13) #9
  br label %64

64:                                               ; preds = %63, %27
  %65 = load ptr, ptr %10, align 8, !tbaa !8
  %66 = getelementptr inbounds nuw %struct.H5FD_multi_t, ptr %65, i32 0, i32 3
  %67 = load i32, ptr %11, align 4, !tbaa !10
  %68 = sext i32 %67 to i64
  %69 = getelementptr inbounds [7 x ptr], ptr %66, i64 0, i64 %68
  %70 = load ptr, ptr %69, align 8, !tbaa !3
  %71 = load i32, ptr %11, align 4, !tbaa !10
  %72 = load i64, ptr %8, align 8, !tbaa !12
  %73 = load i64, ptr %9, align 8, !tbaa !12
  %74 = call i64 @H5FDalloc(ptr noundef %70, i32 noundef %71, i64 noundef %72, i64 noundef %73)
  store i64 %74, ptr %12, align 8, !tbaa !12
  %75 = icmp eq i64 -1, %74
  br i1 %75, label %76, label %138

76:                                               ; preds = %64
  br label %77

77:                                               ; preds = %76
  %78 = load i8, ptr @H5_libinit_g, align 1, !tbaa !22, !range !24, !noundef !25
  %79 = trunc i8 %78 to i1
  br i1 %79, label %84, label %80

80:                                               ; preds = %77
  %81 = load i8, ptr @H5_libterm_g, align 1, !tbaa !22, !range !24, !noundef !25
  %82 = trunc i8 %81 to i1
  %83 = xor i1 %82, true
  br label %84

84:                                               ; preds = %80, %77
  %85 = phi i1 [ false, %77 ], [ %83, %80 ]
  %86 = xor i1 %85, true
  %87 = xor i1 %86, true
  %88 = zext i1 %87 to i32
  %89 = sext i32 %88 to i64
  %90 = call i64 @llvm.expect.i64(i64 %89, i64 0)
  %91 = icmp ne i64 %90, 0
  br i1 %91, label %92, label %94

92:                                               ; preds = %84
  %93 = call i32 @H5open()
  br label %95

94:                                               ; preds = %84
  br label %95

95:                                               ; preds = %94, %92
  %96 = load i64, ptr @H5E_ERR_CLS_g, align 8, !tbaa !12
  %97 = load i8, ptr @H5_libinit_g, align 1, !tbaa !22, !range !24, !noundef !25
  %98 = trunc i8 %97 to i1
  br i1 %98, label %103, label %99

99:                                               ; preds = %95
  %100 = load i8, ptr @H5_libterm_g, align 1, !tbaa !22, !range !24, !noundef !25
  %101 = trunc i8 %100 to i1
  %102 = xor i1 %101, true
  br label %103

103:                                              ; preds = %99, %95
  %104 = phi i1 [ false, %95 ], [ %102, %99 ]
  %105 = xor i1 %104, true
  %106 = xor i1 %105, true
  %107 = zext i1 %106 to i32
  %108 = sext i32 %107 to i64
  %109 = call i64 @llvm.expect.i64(i64 %108, i64 0)
  %110 = icmp ne i64 %109, 0
  br i1 %110, label %111, label %113

111:                                              ; preds = %103
  %112 = call i32 @H5open()
  br label %114

113:                                              ; preds = %103
  br label %114

114:                                              ; preds = %113, %111
  %115 = load i64, ptr @H5E_INTERNAL_g, align 8, !tbaa !12
  %116 = load i8, ptr @H5_libinit_g, align 1, !tbaa !22, !range !24, !noundef !25
  %117 = trunc i8 %116 to i1
  br i1 %117, label %122, label %118

118:                                              ; preds = %114
  %119 = load i8, ptr @H5_libterm_g, align 1, !tbaa !22, !range !24, !noundef !25
  %120 = trunc i8 %119 to i1
  %121 = xor i1 %120, true
  br label %122

122:                                              ; preds = %118, %114
  %123 = phi i1 [ false, %114 ], [ %121, %118 ]
  %124 = xor i1 %123, true
  %125 = xor i1 %124, true
  %126 = zext i1 %125 to i32
  %127 = sext i32 %126 to i64
  %128 = call i64 @llvm.expect.i64(i64 %127, i64 0)
  %129 = icmp ne i64 %128, 0
  br i1 %129, label %130, label %132

130:                                              ; preds = %122
  %131 = call i32 @H5open()
  br label %133

132:                                              ; preds = %122
  br label %133

133:                                              ; preds = %132, %130
  %134 = load i64, ptr @H5E_BADVALUE_g, align 8, !tbaa !12
  %135 = call i32 (i64, ptr, ptr, i32, i64, i64, i64, ptr, ...) @H5Epush2(i64 noundef 0, ptr noundef @.str.1, ptr noundef @__func__.H5FD_multi_alloc, i32 noundef 1559, i64 noundef %96, i64 noundef %115, i64 noundef %134, ptr noundef @.str.41)
  store i64 -1, ptr %5, align 8
  store i32 1, ptr %14, align 4
  br label %149

136:                                              ; No predecessors!
  br label %137

137:                                              ; preds = %136
  br label %138

138:                                              ; preds = %137, %64
  %139 = load ptr, ptr %10, align 8, !tbaa !8
  %140 = getelementptr inbounds nuw %struct.H5FD_multi_t, ptr %139, i32 0, i32 1
  %141 = getelementptr inbounds nuw %struct.H5FD_multi_fapl_t, ptr %140, i32 0, i32 3
  %142 = load i32, ptr %11, align 4, !tbaa !10
  %143 = sext i32 %142 to i64
  %144 = getelementptr inbounds [7 x i64], ptr %141, i64 0, i64 %143
  %145 = load i64, ptr %144, align 8, !tbaa !12
  %146 = load i64, ptr %12, align 8, !tbaa !12
  %147 = add i64 %146, %145
  store i64 %147, ptr %12, align 8, !tbaa !12
  %148 = load i64, ptr %12, align 8, !tbaa !12
  store i64 %148, ptr %5, align 8
  store i32 1, ptr %14, align 4
  br label %149

149:                                              ; preds = %138, %133
  call void @llvm.lifetime.end.p0(i64 8, ptr %12) #9
  call void @llvm.lifetime.end.p0(i64 4, ptr %11) #9
  call void @llvm.lifetime.end.p0(i64 8, ptr %10) #9
  %150 = load i64, ptr %5, align 8
  ret i64 %150
}