; Function Attrs: nounwind uwtable
define internal i64 @H5FD_multi_alloc(ptr noundef readonly captures(none) %0, i32 noundef %1, i64 noundef %2, i64 noundef %3) #0 {
  %5 = getelementptr inbounds nuw i8, ptr %0, i64 80
  %6 = sext i32 %1 to i64
  %7 = getelementptr inbounds [7 x i32], ptr %5, i64 0, i64 %6
  %8 = load i32, ptr %7, align 4, !tbaa !3
  %9 = icmp eq i32 %8, 0
  %spec.select = select i1 %9, i32 %1, i32 %8
  %10 = getelementptr inbounds nuw i8, ptr %0, i64 72
  %11 = load i8, ptr %10, align 8, !tbaa !53, !range !20, !noundef !21
  %12 = trunc nuw i8 %11 to i1
  br i1 %12, label %.preheader, label %.loopexit

.preheader:                                       ; preds = %4
  %13 = getelementptr inbounds nuw i8, ptr %0, i64 344
  br label %14

14:                                               ; preds = %.preheader, %19
  %indvars.iv = phi i64 [ 0, %.preheader ], [ %indvars.iv.next, %19 ]
  %15 = getelementptr inbounds nuw [7 x ptr], ptr %13, i64 0, i64 %indvars.iv
  %16 = load ptr, ptr %15, align 8, !tbaa !15
  %.not = icmp eq ptr %16, null
  br i1 %.not, label %19, label %17

17:                                               ; preds = %14
  %18 = getelementptr inbounds nuw i8, ptr %16, i64 72
  store i8 %11, ptr %18, align 8, !tbaa !54
  br label %19

19:                                               ; preds = %14, %17
  %indvars.iv.next = add nuw nsw i64 %indvars.iv, 1
  %exitcond.not = icmp eq i64 %indvars.iv.next, 7
  br i1 %exitcond.not, label %.loopexit, label %14, !llvm.loop !55

.loopexit:                                        ; preds = %19, %4
  %20 = getelementptr inbounds nuw i8, ptr %0, i64 344
  %21 = sext i32 %spec.select to i64
  %22 = getelementptr inbounds [7 x ptr], ptr %20, i64 0, i64 %21
  %23 = load ptr, ptr %22, align 8, !tbaa !15
  %24 = tail call i64 @H5FDalloc(ptr noundef %23, i32 noundef %spec.select, i64 noundef %2, i64 noundef %3) #15
  %25 = icmp eq i64 %24, -1
  br i1 %25, label %26, label %55

26:                                               ; preds = %.loopexit
  %27 = load i8, ptr @H5_libinit_g, align 1, !tbaa !18, !range !20, !noundef !21
  %28 = trunc nuw i8 %27 to i1
  %29 = load i8, ptr @H5_libterm_g, align 1, !range !20
  %30 = trunc nuw i8 %29 to i1
  %31 = select i1 %28, i1 true, i1 %30
  br i1 %31, label %34, label %32, !prof !22

32:                                               ; preds = %26
  %33 = tail call i32 @H5open() #15
  %.pre = load i8, ptr @H5_libinit_g, align 1, !tbaa !18, !range !20
  %.pre29 = load i8, ptr @H5_libterm_g, align 1, !range !20
  br label %34

34:                                               ; preds = %26, %32
  %35 = phi i8 [ %29, %26 ], [ %.pre29, %32 ]
  %36 = phi i8 [ %27, %26 ], [ %.pre, %32 ]
  %37 = load i64, ptr @H5E_ERR_CLS_g, align 8, !tbaa !23
  %38 = trunc nuw i8 %36 to i1
  %39 = trunc nuw i8 %35 to i1
  %40 = select i1 %38, i1 true, i1 %39
  br i1 %40, label %43, label %41, !prof !22

41:                                               ; preds = %34
  %42 = tail call i32 @H5open() #15
  %.pre30 = load i8, ptr @H5_libinit_g, align 1, !tbaa !18, !range !20
  %.pre31 = load i8, ptr @H5_libterm_g, align 1, !range !20
  br label %43

43:                                               ; preds = %34, %41
  %44 = phi i8 [ %35, %34 ], [ %.pre31, %41 ]
  %45 = phi i8 [ %36, %34 ], [ %.pre30, %41 ]
  %46 = load i64, ptr @H5E_INTERNAL_g, align 8, !tbaa !23
  %47 = trunc nuw i8 %45 to i1
  %48 = trunc nuw i8 %44 to i1
  %49 = select i1 %47, i1 true, i1 %48
  br i1 %49, label %52, label %50, !prof !22

50:                                               ; preds = %43
  %51 = tail call i32 @H5open() #15
  br label %52

52:                                               ; preds = %43, %50
  %53 = load i64, ptr @H5E_BADVALUE_g, align 8, !tbaa !23
  %54 = tail call i32 (i64, ptr, ptr, i32, i64, i64, i64, ptr, ...) @H5Epush2(i64 noundef 0, ptr noundef nonnull @.str.1, ptr noundef nonnull @__func__.H5FD_multi_alloc, i32 noundef 1559, i64 noundef %37, i64 noundef %46, i64 noundef %53, ptr noundef nonnull @.str.41) #15
  br label %60

55:                                               ; preds = %.loopexit
  %56 = getelementptr inbounds nuw i8, ptr %0, i64 224
  %57 = getelementptr inbounds [7 x i64], ptr %56, i64 0, i64 %21
  %58 = load i64, ptr %57, align 8, !tbaa !23
  %59 = add i64 %58, %24
  br label %60

60:                                               ; preds = %55, %52
  %.023 = phi i64 [ -1, %52 ], [ %59, %55 ]
  ret i64 %.023
}